target datalayout = "e-m:e-p270:32:32-p271:32:32-p272:64:64-i64:64-i128:128-f80:128-n8:16:32:64-S128"
target triple = "x86_64-pc-linux-gnu"

@cqich_id_size = external global i32, align 4
@hf_ulmap_padding = internal global i32 0, align 4
@hf_ulmap_cqich_enhanced_alloc_extended_2_uiuc = internal global i32 0, align 4
@hf_ulmap_cqich_enhanced_alloc_length = internal global i32 0, align 4
@hf_ulmap_cqich_enhanced_alloc_cqich_id = internal global i32 0, align 4
@hf_ulmap_cqich_enhanced_alloc_period = internal global i32 0, align 4
@hf_ulmap_cqich_enhanced_alloc_frame_offset = internal global i32 0, align 4
@hf_ulmap_cqich_enhanced_alloc_duration = internal global i32 0, align 4
@hf_ulmap_cqich_enhanced_alloc_cqich_num = internal global i32 0, align 4
@hf_ulmap_cqich_enhanced_alloc_feedback_type = internal global i32 0, align 4
@hf_ulmap_cqich_enhanced_alloc_allocation_index = internal global i32 0, align 4
@hf_ulmap_cqich_enhanced_alloc_cqich_type = internal global i32 0, align 4
@hf_ulmap_cqich_enhanced_alloc_sttd_indication = internal global i32 0, align 4
@hf_ulmap_cqich_enhanced_alloc_band_amc_precoding_mode = internal global i32 0, align 4
@hf_ulmap_cqich_enhanced_alloc_nr_precoders_feedback = internal global i32 0, align 4
@ett_302b = internal global i32 0, align 4
@.str.522 = private unnamed_addr constant [24 x i8] c"CQICH_Enhanced_Alloc_IE\00", align 1
@.str.523 = private unnamed_addr constant [21 x i8] c"n/a (size == 0 bits)\00", align 1
@.str.524 = private unnamed_addr constant [13 x i8] c"%d (%d bits)\00", align 1
@.str.525 = private unnamed_addr constant [8 x i8] c"%d bits\00", align 1

; Function Attrs: null_pointer_is_valid sspstrong uwtable
define internal i32 @CQICH_Enhanced_Allocation_IE(ptr noundef %0, i32 noundef %1, i32 noundef %2, ptr noundef %3) #1 {
  %5 = alloca ptr, align 8
  %6 = alloca i32, align 4
  %7 = alloca i32, align 4
  %8 = alloca ptr, align 8
  %9 = alloca i32, align 4
  %10 = alloca i32, align 4
  %11 = alloca ptr, align 8
  %12 = alloca i32, align 4
  %13 = alloca i32, align 4
  %14 = alloca i32, align 4
  %15 = alloca i32, align 4
  store ptr %0, ptr %5, align 8
  store i32 %1, ptr %6, align 4
  store i32 %2, ptr %7, align 4
  store ptr %3, ptr %8, align 8
  call void @llvm.lifetime.start.p0(i64 4, ptr %9) #5
  call void @llvm.lifetime.start.p0(i64 4, ptr %10) #5
  call void @llvm.lifetime.start.p0(i64 8, ptr %11) #5
  call void @llvm.lifetime.start.p0(i64 4, ptr %12) #5
  call void @llvm.lifetime.start.p0(i64 4, ptr %13) #5
  call void @llvm.lifetime.start.p0(i64 4, ptr %14) #5
  call void @llvm.lifetime.start.p0(i64 4, ptr %15) #5
  %16 = load i32, ptr %6, align 4
  %17 = mul i32 %16, 4
  store i32 %17, ptr %9, align 4
  %18 = load ptr, ptr %5, align 8
  %19 = load ptr, ptr %8, align 8
  %20 = load i32, ptr %6, align 4
  %21 = sdiv i32 %20, 2
  %22 = load i32, ptr %6, align 4
  %23 = and i32 %22, 1
  %24 = add i32 1, %23
  %25 = load i32, ptr %7, align 4
  %26 = add i32 %24, %25
  %27 = sdiv i32 %26, 2
  %28 = load i32, ptr @ett_302b, align 4
  %29 = call ptr @proto_tree_add_subtree(ptr noundef %18, ptr noundef %19, i32 noundef %21, i32 noundef %27, i32 noundef %28, ptr noundef null, ptr noundef @.str.522)
  store ptr %29, ptr %11, align 8
  %30 = load ptr, ptr %11, align 8
  %31 = load i32, ptr @hf_ulmap_cqich_enhanced_alloc_extended_2_uiuc, align 4
  %32 = load ptr, ptr %8, align 8
  %33 = load i32, ptr %9, align 4
  %34 = call ptr @proto_tree_add_bits_item(ptr noundef %30, i32 noundef %31, ptr noundef %32, i32 noundef %33, i32 noundef 4, i32 noundef 0)
  %35 = load i32, ptr %9, align 4
  %36 = add i32 %35, 4
  store i32 %36, ptr %9, align 4
  %37 = load ptr, ptr %11, align 8
  %38 = load i32, ptr @hf_ulmap_cqich_enhanced_alloc_length, align 4
  %39 = load ptr, ptr %8, align 8
  %40 = load i32, ptr %9, align 4
  %41 = call ptr @proto_tree_add_bits_item(ptr noundef %37, i32 noundef %38, ptr noundef %39, i32 noundef %40, i32 noundef 8, i32 noundef 0)
  %42 = load i32, ptr %9, align 4
  %43 = add i32 %42, 8
  store i32 %43, ptr %9, align 4
  %44 = load i32, ptr @cqich_id_size, align 4
  %45 = icmp eq i32 %44, 0
  br i1 %45, label %46, label %60

46:                                               ; preds = %4
  %47 = load ptr, ptr %11, align 8
  %48 = load i32, ptr @hf_ulmap_cqich_enhanced_alloc_cqich_id, align 4
  %49 = load ptr, ptr %8, align 8
  %50 = load i32, ptr %9, align 4
  %51 = sdiv i32 %50, 8
  %52 = load i32, ptr %9, align 4
  %53 = srem i32 %52, 8
  %54 = add i32 %53, 1
  %55 = sub i32 %54, 1
  %56 = sdiv i32 %55, 8
  %57 = add i32 1, %56
  %58 = load i32, ptr @cqich_id_size, align 4
  %59 = call ptr (ptr, i32, ptr, i32, i32, i32, ptr, ...) @proto_tree_add_uint_format_value(ptr noundef %47, i32 noundef %48, ptr noundef %49, i32 noundef %51, i32 noundef %57, i32 noundef %58, ptr noundef @.str.523)
  br label %95

60:                                               ; preds = %4
  %61 = load ptr, ptr %8, align 8
  %62 = load i32, ptr %9, align 4
  %63 = sdiv i32 %62, 8
  %64 = call zeroext i16 @tvb_get_ntohs(ptr noundef %61, i32 noundef %63)
  %65 = zext i16 %64 to i32
  %66 = load i32, ptr %9, align 4
  %67 = srem i32 %66, 8
  %68 = sub i32 16, %67
  %69 = load i32, ptr @cqich_id_size, align 4
  %70 = sub i32 %68, %69
  %71 = ashr i32 %65, %70
  %72 = load i32, ptr @cqich_id_size, align 4
  %73 = sub i32 16, %72
  %74 = ashr i32 65535, %73
  %75 = and i32 %71, %74
  store i32 %75, ptr %10, align 4
  %76 = load ptr, ptr %11, align 8
  %77 = load i32, ptr @hf_ulmap_cqich_enhanced_alloc_cqich_id, align 4
  %78 = load ptr, ptr %8, align 8
  %79 = load i32, ptr %9, align 4
  %80 = sdiv i32 %79, 8
  %81 = load i32, ptr %9, align 4
  %82 = srem i32 %81, 8
  %83 = load i32, ptr @cqich_id_size, align 4
  %84 = add i32 %82, %83
  %85 = sub i32 %84, 1
  %86 = udiv i32 %85, 8
  %87 = add i32 1, %86
  %88 = load i32, ptr %10, align 4
  %89 = load i32, ptr %10, align 4
  %90 = load i32, ptr @cqich_id_size, align 4
  %91 = call ptr (ptr, i32, ptr, i32, i32, i32, ptr, ...) @proto_tree_add_uint_format_value(ptr noundef %76, i32 noundef %77, ptr noundef %78, i32 noundef %80, i32 noundef %87, i32 noundef %88, ptr noundef @.str.524, i32 noundef %89, i32 noundef %90)
  %92 = load i32, ptr @cqich_id_size, align 4
  %93 = load i32, ptr %9, align 4
  %94 = add i32 %93, %92
  store i32 %94, ptr %9, align 4
  br label %95

95:                                               ; preds = %60, %46
  %96 = load ptr, ptr %11, align 8
  %97 = load i32, ptr @hf_ulmap_cqich_enhanced_alloc_period, align 4
  %98 = load ptr, ptr %8, align 8
  %99 = load i32, ptr %9, align 4
  %100 = call ptr @proto_tree_add_bits_item(ptr noundef %96, i32 noundef %97, ptr noundef %98, i32 noundef %99, i32 noundef 3, i32 noundef 0)
  %101 = load i32, ptr %9, align 4
  %102 = add i32 %101, 3
  store i32 %102, ptr %9, align 4
  %103 = load ptr, ptr %11, align 8
  %104 = load i32, ptr @hf_ulmap_cqich_enhanced_alloc_frame_offset, align 4
  %105 = load ptr, ptr %8, align 8
  %106 = load i32, ptr %9, align 4
  %107 = call ptr @proto_tree_add_bits_item(ptr noundef %103, i32 noundef %104, ptr noundef %105, i32 noundef %106, i32 noundef 3, i32 noundef 0)
  %108 = load i32, ptr %9, align 4
  %109 = add i32 %108, 3
  store i32 %109, ptr %9, align 4
  %110 = load ptr, ptr %11, align 8
  %111 = load i32, ptr @hf_ulmap_cqich_enhanced_alloc_duration, align 4
  %112 = load ptr, ptr %8, align 8
  %113 = load i32, ptr %9, align 4
  %114 = call ptr @proto_tree_add_bits_item(ptr noundef %110, i32 noundef %111, ptr noundef %112, i32 noundef %113, i32 noundef 3, i32 noundef 0)
  %115 = load i32, ptr %9, align 4
  %116 = add i32 %115, 3
  store i32 %116, ptr %9, align 4
  br label %117

117:                                              ; preds = %95
  %118 = load ptr, ptr %8, align 8
  %119 = load i32, ptr %9, align 4
  %120 = sdiv i32 %119, 8
  %121 = call zeroext i16 @tvb_get_ntohs(ptr noundef %118, i32 noundef %120)
  %122 = zext i16 %121 to i32
  %123 = load i32, ptr %9, align 4
  %124 = srem i32 %123, 8
  %125 = sub i32 16, %124
  %126 = sub i32 %125, 4
  %127 = ashr i32 %122, %126
  %128 = and i32 %127, 15
  store i32 %128, ptr %13, align 4
  %129 = load ptr, ptr %11, align 8
  %130 = load i32, ptr @hf_ulmap_cqich_enhanced_alloc_cqich_num, align 4
  %131 = load ptr, ptr %8, align 8
  %132 = load i32, ptr %9, align 4
  %133 = call ptr @proto_tree_add_bits_item(ptr noundef %129, i32 noundef %130, ptr noundef %131, i32 noundef %132, i32 noundef 4, i32 noundef 0)
  %134 = load i32, ptr %9, align 4
  %135 = add i32 %134, 4
  store i32 %135, ptr %9, align 4
  br label %136

136:                                              ; preds = %117
  br label %137

137:                                              ; preds = %136
  %138 = load i32, ptr %13, align 4
  %139 = add i32 %138, 1
  store i32 %139, ptr %13, align 4
  store i32 0, ptr %12, align 4
  br label %140

140:                                              ; preds = %173, %137
  %141 = load i32, ptr %12, align 4
  %142 = load i32, ptr %13, align 4
  %143 = icmp slt i32 %141, %142
  br i1 %143, label %144, label %176

144:                                              ; preds = %140
  %145 = load ptr, ptr %11, align 8
  %146 = load i32, ptr @hf_ulmap_cqich_enhanced_alloc_feedback_type, align 4
  %147 = load ptr, ptr %8, align 8
  %148 = load i32, ptr %9, align 4
  %149 = call ptr @proto_tree_add_bits_item(ptr noundef %145, i32 noundef %146, ptr noundef %147, i32 noundef %148, i32 noundef 3, i32 noundef 0)
  %150 = load i32, ptr %9, align 4
  %151 = add i32 %150, 3
  store i32 %151, ptr %9, align 4
  %152 = load ptr, ptr %11, align 8
  %153 = load i32, ptr @hf_ulmap_cqich_enhanced_alloc_allocation_index, align 4
  %154 = load ptr, ptr %8, align 8
  %155 = load i32, ptr %9, align 4
  %156 = call ptr @proto_tree_add_bits_item(ptr noundef %152, i32 noundef %153, ptr noundef %154, i32 noundef %155, i32 noundef 6, i32 noundef 0)
  %157 = load i32, ptr %9, align 4
  %158 = add i32 %157, 6
  store i32 %158, ptr %9, align 4
  %159 = load ptr, ptr %11, align 8
  %160 = load i32, ptr @hf_ulmap_cqich_enhanced_alloc_cqich_type, align 4
  %161 = load ptr, ptr %8, align 8
  %162 = load i32, ptr %9, align 4
  %163 = call ptr @proto_tree_add_bits_item(ptr noundef %159, i32 noundef %160, ptr noundef %161, i32 noundef %162, i32 noundef 3, i32 noundef 0)
  %164 = load i32, ptr %9, align 4
  %165 = add i32 %164, 3
  store i32 %165, ptr %9, align 4
  %166 = load ptr, ptr %11, align 8
  %167 = load i32, ptr @hf_ulmap_cqich_enhanced_alloc_sttd_indication, align 4
  %168 = load ptr, ptr %8, align 8
  %169 = load i32, ptr %9, align 4
  %170 = call ptr @proto_tree_add_bits_item(ptr noundef %166, i32 noundef %167, ptr noundef %168, i32 noundef %169, i32 noundef 1, i32 noundef 0)
  %171 = load i32, ptr %9, align 4
  %172 = add i32 %171, 1
  store i32 %172, ptr %9, align 4
  br label %173

173:                                              ; preds = %144
  %174 = load i32, ptr %12, align 4
  %175 = add i32 %174, 1
  store i32 %175, ptr %12, align 4
  br label %140, !llvm.loop !6

176:                                              ; preds = %140
  br label %177

177:                                              ; preds = %176
  %178 = load ptr, ptr %8, align 8
  %179 = load i32, ptr %9, align 4
  %180 = sdiv i32 %179, 8
  %181 = call zeroext i8 @tvb_get_uint8(ptr noundef %178, i32 noundef %180)
  %182 = zext i8 %181 to i32
  %183 = load i32, ptr %9, align 4
  %184 = srem i32 %183, 8
  %185 = sub i32 8, %184
  %186 = sub i32 %185, 1
  %187 = ashr i32 %182, %186
  %188 = and i32 %187, 1
  store i32 %188, ptr %14, align 4
  %189 = load ptr, ptr %11, align 8
  %190 = load i32, ptr @hf_ulmap_cqich_enhanced_alloc_band_amc_precoding_mode, align 4
  %191 = load ptr, ptr %8, align 8
  %192 = load i32, ptr %9, align 4
  %193 = call ptr @proto_tree_add_bits_item(ptr noundef %189, i32 noundef %190, ptr noundef %191, i32 noundef %192, i32 noundef 1, i32 noundef 0)
  %194 = load i32, ptr %9, align 4
  %195 = add i32 %194, 1
  store i32 %195, ptr %9, align 4
  br label %196

196:                                              ; preds = %177
  br label %197

197:                                              ; preds = %196
  %198 = load i32, ptr %14, align 4
  %199 = icmp eq i32 %198, 1
  br i1 %199, label %200, label %208

200:                                              ; preds = %197
  %201 = load ptr, ptr %11, align 8
  %202 = load i32, ptr @hf_ulmap_cqich_enhanced_alloc_nr_precoders_feedback, align 4
  %203 = load ptr, ptr %8, align 8
  %204 = load i32, ptr %9, align 4
  %205 = call ptr @proto_tree_add_bits_item(ptr noundef %201, i32 noundef %202, ptr noundef %203, i32 noundef %204, i32 noundef 3, i32 noundef 0)
  %206 = load i32, ptr %9, align 4
  %207 = add i32 %206, 3
  store i32 %207, ptr %9, align 4
  br label %208

208:                                              ; preds = %200, %197
  %209 = load i32, ptr %9, align 4
  %210 = srem i32 %209, 8
  %211 = icmp ne i32 %210, 0
  br i1 %211, label %212, label %216

212:                                              ; preds = %208
  %213 = load i32, ptr %9, align 4
  %214 = srem i32 %213, 8
  %215 = sub i32 8, %214
  br label %217

216:                                              ; preds = %208
  br label %217

217:                                              ; preds = %216, %212
  %218 = phi i32 [ %215, %212 ], [ 0, %216 ]
  store i32 %218, ptr %15, align 4
  %219 = load i32, ptr %15, align 4
  %220 = icmp ne i32 %219, 0
  br i1 %220, label %221, label %239

221:                                              ; preds = %217
  %222 = load ptr, ptr %11, align 8
  %223 = load i32, ptr @hf_ulmap_padding, align 4
  %224 = load ptr, ptr %8, align 8
  %225 = load i32, ptr %9, align 4
  %226 = sdiv i32 %225, 8
  %227 = load i32, ptr %9, align 4
  %228 = srem i32 %227, 8
  %229 = load i32, ptr %15, align 4
  %230 = add i32 %228, %229
  %231 = sub i32 %230, 1
  %232 = udiv i32 %231, 8
  %233 = add i32 1, %232
  %234 = load i32, ptr %15, align 4
  %235 = call ptr (ptr, i32, ptr, i32, i32, ptr, ptr, ...) @proto_tree_add_bytes_format_value(ptr noundef %222, i32 noundef %223, ptr noundef %224, i32 noundef %226, i32 noundef %233, ptr noundef null, ptr noundef @.str.525, i32 noundef %234)
  %236 = load i32, ptr %15, align 4
  %237 = load i32, ptr %9, align 4
  %238 = add i32 %237, %236
  store i32 %238, ptr %9, align 4
  br label %239

239:                                              ; preds = %221, %217
  %240 = load i32, ptr %9, align 4
  %241 = sdiv i32 %240, 4
  call void @llvm.lifetime.end.p0(i64 4, ptr %15) #5
  call void @llvm.lifetime.end.p0(i64 4, ptr %14) #5
  call void @llvm.lifetime.end.p0(i64 4, ptr %13) #5
  call void @llvm.lifetime.end.p0(i64 4, ptr %12) #5
  call void @llvm.lifetime.end.p0(i64 8, ptr %11) #5
  call void @llvm.lifetime.end.p0(i64 4, ptr %10) #5
  call void @llvm.lifetime.end.p0(i64 4, ptr %9) #5
  ret i32 %241
}