; Function Attrs: null_pointer_is_valid sspstrong uwtable
define internal fastcc noundef range(i32 -536870912, 536870912) i32 @CQICH_Enhanced_Allocation_IE(ptr noundef %0, i32 noundef %1, i32 noundef range(i32 3, 514) %2, ptr noundef %3) unnamed_addr #1 {
  %5 = shl i32 %1, 2
  %6 = sdiv i32 %1, 2
  %7 = and i32 %1, 1
  %8 = add nuw nsw i32 %7, 1
  %9 = add nuw nsw i32 %8, %2
  %10 = lshr i32 %9, 1
  %11 = load i32, ptr @ett_302b, align 4
  %12 = tail call ptr @proto_tree_add_subtree(ptr noundef %0, ptr noundef %3, i32 noundef %6, i32 noundef %10, i32 noundef %11, ptr noundef null, ptr noundef nonnull @.str.522)
  %13 = load i32, ptr @hf_ulmap_cqich_enhanced_alloc_extended_2_uiuc, align 4
  %14 = tail call ptr @proto_tree_add_bits_item(ptr noundef %12, i32 noundef %13, ptr noundef %3, i32 noundef %5, i32 noundef 4, i32 noundef 0)
  %15 = add i32 %5, 4
  %16 = load i32, ptr @hf_ulmap_cqich_enhanced_alloc_length, align 4
  %17 = tail call ptr @proto_tree_add_bits_item(ptr noundef %12, i32 noundef %16, ptr noundef %3, i32 noundef %15, i32 noundef 8, i32 noundef 0)
  %18 = add i32 %5, 12
  %19 = load i32, ptr @cqich_id_size, align 4
  %20 = icmp eq i32 %19, 0
  br i1 %20, label %21, label %25

21:                                               ; preds = %4
  %22 = load i32, ptr @hf_ulmap_cqich_enhanced_alloc_cqich_id, align 4
  %23 = sdiv i32 %18, 8
  %24 = tail call ptr (ptr, i32, ptr, i32, i32, i32, ptr, ...) @proto_tree_add_uint_format_value(ptr noundef %12, i32 noundef %22, ptr noundef %3, i32 noundef %23, i32 noundef 1, i32 noundef 0, ptr noundef nonnull @.str.523)
  br label %44

25:                                               ; preds = %4
  %26 = sdiv i32 %18, 8
  %27 = tail call zeroext i16 @tvb_get_ntohs(ptr noundef %3, i32 noundef %26)
  %28 = zext i16 %27 to i32
  %29 = srem i32 %18, 8
  %30 = load i32, ptr @cqich_id_size, align 4
  %31 = add i32 %30, %29
  %32 = sub i32 16, %31
  %33 = lshr i32 %28, %32
  %34 = sub i32 16, %30
  %35 = lshr i32 65535, %34
  %36 = and i32 %33, %35
  %37 = load i32, ptr @hf_ulmap_cqich_enhanced_alloc_cqich_id, align 4
  %38 = add i32 %31, -1
  %39 = lshr i32 %38, 3
  %40 = add nuw nsw i32 %39, 1
  %41 = tail call ptr (ptr, i32, ptr, i32, i32, i32, ptr, ...) @proto_tree_add_uint_format_value(ptr noundef %12, i32 noundef %37, ptr noundef %3, i32 noundef %26, i32 noundef %40, i32 noundef %36, ptr noundef nonnull @.str.524, i32 noundef %36, i32 noundef %30)
  %42 = load i32, ptr @cqich_id_size, align 4
  %43 = add i32 %42, %18
  br label %44

44:                                               ; preds = %25, %21
  %.0 = phi i32 [ %18, %21 ], [ %43, %25 ]
  %45 = load i32, ptr @hf_ulmap_cqich_enhanced_alloc_period, align 4
  %46 = tail call ptr @proto_tree_add_bits_item(ptr noundef %12, i32 noundef %45, ptr noundef %3, i32 noundef %.0, i32 noundef 3, i32 noundef 0)
  %47 = add i32 %.0, 3
  %48 = load i32, ptr @hf_ulmap_cqich_enhanced_alloc_frame_offset, align 4
  %49 = tail call ptr @proto_tree_add_bits_item(ptr noundef %12, i32 noundef %48, ptr noundef %3, i32 noundef %47, i32 noundef 3, i32 noundef 0)
  %50 = add i32 %.0, 6
  %51 = load i32, ptr @hf_ulmap_cqich_enhanced_alloc_duration, align 4
  %52 = tail call ptr @proto_tree_add_bits_item(ptr noundef %12, i32 noundef %51, ptr noundef %3, i32 noundef %50, i32 noundef 3, i32 noundef 0)
  %53 = add i32 %.0, 9
  %54 = sdiv i32 %53, 8
  %55 = tail call zeroext i16 @tvb_get_ntohs(ptr noundef %3, i32 noundef %54)
  %56 = zext i16 %55 to i32
  %57 = srem i32 %53, 8
  %58 = sub nsw i32 12, %57
  %59 = lshr i32 %56, %58
  %60 = and i32 %59, 15
  %61 = load i32, ptr @hf_ulmap_cqich_enhanced_alloc_cqich_num, align 4
  %62 = tail call ptr @proto_tree_add_bits_item(ptr noundef %12, i32 noundef %61, ptr noundef %3, i32 noundef %53, i32 noundef 4, i32 noundef 0)
  %.198 = add i32 %.0, 13
  br label %63

63:                                               ; preds = %44, %63
  %.1101 = phi i32 [ %.198, %44 ], [ %.1, %63 ]
  %.1.in100 = phi i32 [ %.0, %44 ], [ %.1101, %63 ]
  %.09099 = phi i32 [ 0, %44 ], [ %75, %63 ]
  %64 = load i32, ptr @hf_ulmap_cqich_enhanced_alloc_feedback_type, align 4
  %65 = tail call ptr @proto_tree_add_bits_item(ptr noundef %12, i32 noundef %64, ptr noundef %3, i32 noundef %.1101, i32 noundef 3, i32 noundef 0)
  %66 = add i32 %.1.in100, 16
  %67 = load i32, ptr @hf_ulmap_cqich_enhanced_alloc_allocation_index, align 4
  %68 = tail call ptr @proto_tree_add_bits_item(ptr noundef %12, i32 noundef %67, ptr noundef %3, i32 noundef %66, i32 noundef 6, i32 noundef 0)
  %69 = add i32 %.1.in100, 22
  %70 = load i32, ptr @hf_ulmap_cqich_enhanced_alloc_cqich_type, align 4
  %71 = tail call ptr @proto_tree_add_bits_item(ptr noundef %12, i32 noundef %70, ptr noundef %3, i32 noundef %69, i32 noundef 3, i32 noundef 0)
  %72 = add i32 %.1.in100, 25
  %73 = load i32, ptr @hf_ulmap_cqich_enhanced_alloc_sttd_indication, align 4
  %74 = tail call ptr @proto_tree_add_bits_item(ptr noundef %12, i32 noundef %73, ptr noundef %3, i32 noundef %72, i32 noundef 1, i32 noundef 0)
  %75 = add nuw nsw i32 %.09099, 1
  %.1 = add i32 %.1101, 13
  %exitcond.not = icmp eq i32 %.09099, %60
  br i1 %exitcond.not, label %76, label %63, !llvm.loop !6

76:                                               ; preds = %63
  %77 = sdiv i32 %.1, 8
  %78 = tail call zeroext i8 @tvb_get_uint8(ptr noundef %3, i32 noundef %77)
  %79 = zext i8 %78 to i32
  %80 = srem i32 %.1, 8
  %81 = sub nsw i32 7, %80
  %82 = load i32, ptr @hf_ulmap_cqich_enhanced_alloc_band_amc_precoding_mode, align 4
  %83 = tail call ptr @proto_tree_add_bits_item(ptr noundef %12, i32 noundef %82, ptr noundef %3, i32 noundef %.1, i32 noundef 1, i32 noundef 0)
  %84 = add i32 %.1101, 14
  %85 = shl nuw nsw i32 1, %81
  %86 = and i32 %85, %79
  %.not94 = icmp eq i32 %86, 0
  br i1 %.not94, label %91, label %87

87:                                               ; preds = %76
  %88 = load i32, ptr @hf_ulmap_cqich_enhanced_alloc_nr_precoders_feedback, align 4
  %89 = tail call ptr @proto_tree_add_bits_item(ptr noundef %12, i32 noundef %88, ptr noundef %3, i32 noundef %84, i32 noundef 3, i32 noundef 0)
  %90 = add i32 %.1101, 17
  br label %91

91:                                               ; preds = %87, %76
  %.2 = phi i32 [ %90, %87 ], [ %84, %76 ]
  %92 = srem i32 %.2, 8
  %93 = sdiv i32 %.2, 8
  %.not95 = icmp eq i32 %92, 0
  br i1 %.not95, label %99, label %94

94:                                               ; preds = %91
  %95 = sub nsw i32 8, %92
  %96 = load i32, ptr @hf_ulmap_padding, align 4
  %97 = tail call ptr (ptr, i32, ptr, i32, i32, ptr, ptr, ...) @proto_tree_add_bytes_format_value(ptr noundef %12, i32 noundef %96, ptr noundef %3, i32 noundef %93, i32 noundef 1, ptr noundef null, ptr noundef nonnull @.str.525, i32 noundef %95)
  %98 = add i32 %95, %.2
  br label %99

99:                                               ; preds = %94, %91
  %.3 = phi i32 [ %98, %94 ], [ %.2, %91 ]
  %100 = sdiv i32 %.3, 4
  ret i32 %100
}